target datalayout = "e-m:e-p270:32:32-p271:32:32-p272:64:64-i64:64-i128:128-f80:128-n8:16:32:64-S128"
target triple = "x86_64-pc-linux-gnu"

%"class.rocksdb::Customizable" = type { %"class.rocksdb::Configurable" }
%"class.rocksdb::Configurable" = type { ptr, %"class.std::vector.3" }
%"class.std::vector.3" = type { %"struct.std::_Vector_base.4" }
%"struct.std::_Vector_base.4" = type { %"struct.std::_Vector_base<rocksdb::Configurable::RegisteredOptions, std::allocator<rocksdb::Configurable::RegisteredOptions>>::_Vector_impl" }
%"struct.std::_Vector_base<rocksdb::Configurable::RegisteredOptions, std::allocator<rocksdb::Configurable::RegisteredOptions>>::_Vector_impl" = type { %"struct.std::_Vector_base<rocksdb::Configurable::RegisteredOptions, std::allocator<rocksdb::Configurable::RegisteredOptions>>::_Vector_impl_data" }
%"struct.std::_Vector_base<rocksdb::Configurable::RegisteredOptions, std::allocator<rocksdb::Configurable::RegisteredOptions>>::_Vector_impl_data" = type { ptr, ptr, ptr }
%"class.rocksdb::(anonymous namespace)::LegacyFileSystemWrapper" = type { %"class.rocksdb::FileSystem", ptr }
%"class.rocksdb::FileSystem" = type { %"class.rocksdb::Customizable" }

; Function Attrs: mustprogress uwtable
define internal void @_ZNK7rocksdb12_GLOBAL__N_123LegacyFileSystemWrapper19SanitizeFileOptionsEPNS_11FileOptionsE(ptr noundef nonnull align 8 dereferenceable(40) %0, ptr noundef %1) unnamed_addr #5 align 2 {
  %3 = alloca ptr, align 8
  %4 = alloca ptr, align 8
  store ptr %0, ptr %3, align 8, !tbaa !864
  store ptr %1, ptr %4, align 8, !tbaa !202
  %5 = load ptr, ptr %3, align 8
  %6 = getelementptr inbounds nuw %"class.rocksdb::(anonymous namespace)::LegacyFileSystemWrapper", ptr %5, i32 0, i32 1
  %7 = load ptr, ptr %6, align 8, !tbaa !878
  %8 = load ptr, ptr %4, align 8, !tbaa !202
  %9 = load ptr, ptr %7, align 8, !tbaa !52
  %10 = getelementptr inbounds ptr, ptr %9, i64 84
  %11 = load ptr, ptr %10, align 8
  call void %11(ptr noundef nonnull align 8 dereferenceable(72) %7, ptr noundef %8)
  ret void
}